target datalayout = "e-m:e-p270:32:32-p271:32:32-p272:64:64-i64:64-i128:128-f80:128-n8:16:32:64-S128"
target triple = "x86_64-pc-linux-gnu"

%struct.pmix_list_t = type { %struct.pmix_object_t, %struct.pmix_list_item_t, i64 }
%struct.pmix_object_t = type { %union.pthread_mutex_t, ptr, i32, %struct.pmix_tma }
%union.pthread_mutex_t = type { %struct.__pthread_mutex_s }
%struct.__pthread_mutex_s = type { i32, i32, i32, i32, i32, i16, i16, %struct.__pthread_internal_list }
%struct.__pthread_internal_list = type { ptr, ptr }
%struct.pmix_tma = type { ptr, ptr, ptr, ptr, ptr, ptr, ptr, ptr }
%struct.pmix_list_item_t = type { %struct.pmix_object_t, ptr, ptr, i32 }
%struct.pmix_proc = type { [256 x i8], i32 }
%struct.pmix_cli_result_t = type { %struct.pmix_object_t, %struct.pmix_list_t, ptr }
%struct.prte_job_t = type { %struct.pmix_list_item_t, i32, ptr, ptr, [256 x i8], ptr, i32, i32, ptr, ptr, i32, i32, i32, i32, ptr, ptr, ptr, i32, i32, i32, i32, i32, i32, i32, %struct.pmix_proc, i32, i16, %struct.pmix_list_t, %struct.pmix_data_buffer, %struct.pmix_list_t, [256 x i8], i32, ptr, %struct.pmix_cli_result_t }
%struct.pmix_data_buffer = type { ptr, ptr, ptr, i64, i64 }
%struct.prte_job_map_t = type { %struct.pmix_object_t, ptr, ptr, i16, i16, i16, i8, i32, i32, i32, ptr }

; Function Attrs: nounwind uwtable
define internal i32 @set_default_ranking(ptr noundef %0, ptr noundef %1) #0 {
  %3 = alloca i32, align 4
  %4 = alloca ptr, align 8
  %5 = alloca ptr, align 8
  %6 = alloca i32, align 4
  %7 = alloca i16, align 2
  %8 = alloca i32, align 4
  store ptr %0, ptr %4, align 8, !tbaa !8
  store ptr %1, ptr %5, align 8, !tbaa !8
  call void @llvm.lifetime.start.p0(i64 4, ptr %6) #11
  call void @llvm.lifetime.start.p0(i64 2, ptr %7) #11
  %9 = load ptr, ptr %4, align 8, !tbaa !8
  %10 = load ptr, ptr %5, align 8, !tbaa !8
  %11 = call i32 @prte_rmaps_base_set_default_ranking(ptr noundef %9, ptr noundef %10)
  store i32 %11, ptr %6, align 4, !tbaa !13
  %12 = load i32, ptr %6, align 4, !tbaa !13
  %13 = icmp ne i32 0, %12
  br i1 %13, label %14, label %16

14:                                               ; preds = %2
  %15 = load i32, ptr %6, align 4, !tbaa !13
  store i32 %15, ptr %3, align 4
  store i32 1, ptr %8, align 4
  br label %63

16:                                               ; preds = %2
  %17 = load ptr, ptr %4, align 8, !tbaa !8
  %18 = getelementptr inbounds nuw %struct.prte_job_t, ptr %17, i32 0, i32 15
  %19 = load ptr, ptr %18, align 8, !tbaa !71
  %20 = getelementptr inbounds nuw %struct.prte_job_map_t, ptr %19, i32 0, i32 3
  %21 = load i16, ptr %20, align 8, !tbaa !77
  %22 = zext i16 %21 to i32
  %23 = and i32 %22, 65280
  %24 = and i32 16384, %23
  %25 = icmp ne i32 %24, 0
  br i1 %25, label %26, label %62

26:                                               ; preds = %16
  %27 = load ptr, ptr %4, align 8, !tbaa !8
  %28 = getelementptr inbounds nuw %struct.prte_job_t, ptr %27, i32 0, i32 15
  %29 = load ptr, ptr %28, align 8, !tbaa !71
  %30 = getelementptr inbounds nuw %struct.prte_job_map_t, ptr %29, i32 0, i32 3
  %31 = load i16, ptr %30, align 8, !tbaa !77
  %32 = zext i16 %31 to i32
  %33 = and i32 %32, 255
  %34 = trunc i32 %33 to i16
  store i16 %34, ptr %7, align 2, !tbaa !57
  %35 = load i16, ptr %7, align 2, !tbaa !57
  %36 = zext i16 %35 to i32
  %37 = icmp eq i32 23, %36
  br i1 %37, label %38, label %61

38:                                               ; preds = %26
  %39 = load ptr, ptr %4, align 8, !tbaa !8
  %40 = getelementptr inbounds nuw %struct.prte_job_t, ptr %39, i32 0, i32 15
  %41 = load ptr, ptr %40, align 8, !tbaa !71
  %42 = getelementptr inbounds nuw %struct.prte_job_map_t, ptr %41, i32 0, i32 4
  %43 = load i16, ptr %42, align 2, !tbaa !79
  %44 = zext i16 %43 to i32
  %45 = and i32 %44, 4095
  %46 = icmp ne i32 %45, 0
  br i1 %46, label %61, label %47

47:                                               ; preds = %38
  %48 = load ptr, ptr %4, align 8, !tbaa !8
  %49 = getelementptr inbounds nuw %struct.prte_job_t, ptr %48, i32 0, i32 15
  %50 = load ptr, ptr %49, align 8, !tbaa !71
  %51 = getelementptr inbounds nuw %struct.prte_job_map_t, ptr %50, i32 0, i32 4
  %52 = load i16, ptr %51, align 2, !tbaa !79
  %53 = zext i16 %52 to i32
  %54 = and i32 %53, 61440
  %55 = or i32 2, %54
  %56 = trunc i32 %55 to i16
  %57 = load ptr, ptr %4, align 8, !tbaa !8
  %58 = getelementptr inbounds nuw %struct.prte_job_t, ptr %57, i32 0, i32 15
  %59 = load ptr, ptr %58, align 8, !tbaa !71
  %60 = getelementptr inbounds nuw %struct.prte_job_map_t, ptr %59, i32 0, i32 4
  store i16 %56, ptr %60, align 2, !tbaa !79
  br label %61

61:                                               ; preds = %47, %38, %26
  br label %62

62:                                               ; preds = %61, %16
  store i32 0, ptr %3, align 4
  store i32 1, ptr %8, align 4
  br label %63

63:                                               ; preds = %62, %14
  call void @llvm.lifetime.end.p0(i64 2, ptr %7) #11
  call void @llvm.lifetime.end.p0(i64 4, ptr %6) #11
  %64 = load i32, ptr %3, align 4
  ret i32 %64
}