; Function Attrs: nounwind uwtable
define internal i32 @set_default_ranking(ptr noundef %0, ptr noundef %1) #0 {
  %3 = tail call i32 @prte_rmaps_base_set_default_ranking(ptr noundef %0, ptr noundef %1) #18
  %.not = icmp eq i32 %3, 0
  br i1 %.not, label %4, label %16

4:                                                ; preds = %2
  %5 = getelementptr inbounds nuw i8, ptr %0, i64 480
  %6 = load ptr, ptr %5, align 8, !tbaa !96
  %7 = getelementptr inbounds nuw i8, ptr %6, i64 136
  %8 = load i16, ptr %7, align 8, !tbaa !102
  %9 = and i16 %8, 16639
  %or.cond = icmp eq i16 %9, 16407
  br i1 %or.cond, label %10, label %16

10:                                               ; preds = %4
  %11 = getelementptr inbounds nuw i8, ptr %6, i64 138
  %12 = load i16, ptr %11, align 2, !tbaa !104
  %13 = and i16 %12, 4095
  %.not12 = icmp eq i16 %13, 0
  br i1 %.not12, label %14, label %16

14:                                               ; preds = %10
  %15 = or disjoint i16 %12, 2
  store i16 %15, ptr %11, align 2, !tbaa !104
  br label %16

16:                                               ; preds = %4, %14, %10, %2
  ret i32 %3
}